; ModuleID = '61/588.c'
source_filename = "61/588.c"
target datalayout = "e-m:e-p270:32:32-p271:32:32-p272:64:64-i64:64-f80:128-n8:16:32:64-S128"
target triple = "x86_64-pc-linux-gnu"

@.str = private unnamed_addr constant [3 x i8] c"%d\00", align 1
@.str.1 = private unnamed_addr constant [4 x i8] c"%d\0A\00", align 1

; Function Attrs: noinline nounwind uwtable
define dso_local i32 @main() #0 {
  %1 = alloca i32, align 4
  %2 = alloca i32, align 4
  %3 = alloca [30 x i32], align 16
  %4 = alloca [30 x [100 x i32]], align 16
  %5 = alloca i32, align 4
  %6 = alloca i32, align 4
  %7 = alloca i32, align 4
  store i32 0, i32* %1, align 4
  %8 = call i32 (i8*, ...) @__isoc99_scanf(i8* getelementptr inbounds ([3 x i8], [3 x i8]* @.str, i64 0, i64 0), i32* %2)
  store i32 0, i32* %5, align 4
  br label %9

9:                                                ; preds = %21, %0
  %10 = load i32, i32* %5, align 4
  %11 = icmp sle i32 %10, 29
  br i1 %11, label %12, label %24

12:                                               ; preds = %9
  %13 = load i32, i32* %5, align 4
  %14 = sext i32 %13 to i64
  %15 = getelementptr inbounds [30 x [100 x i32]], [30 x [100 x i32]]* %4, i64 0, i64 %14
  %16 = getelementptr inbounds [100 x i32], [100 x i32]* %15, i64 0, i64 1
  store i32 1, i32* %16, align 4
  %17 = load i32, i32* %5, align 4
  %18 = sext i32 %17 to i64
  %19 = getelementptr inbounds [30 x [100 x i32]], [30 x [100 x i32]]* %4, i64 0, i64 %18
  %20 = getelementptr inbounds [100 x i32], [100 x i32]* %19, i64 0, i64 2
  store i32 1, i32* %20, align 8
  br label %21

21:                                               ; preds = %12
  %22 = load i32, i32* %5, align 4
  %23 = add nsw i32 %22, 1
  store i32 %23, i32* %5, align 4
  br label %9

24:                                               ; preds = %9
  store i32 0, i32* %6, align 4
  br label %25

25:                                               ; preds = %104, %24
  %26 = load i32, i32* %6, align 4
  %27 = load i32, i32* %2, align 4
  %28 = icmp slt i32 %26, %27
  br i1 %28, label %29, label %107

29:                                               ; preds = %25
  %30 = load i32, i32* %6, align 4
  %31 = sext i32 %30 to i64
  %32 = getelementptr inbounds [30 x i32], [30 x i32]* %3, i64 0, i64 %31
  %33 = call i32 (i8*, ...) @__isoc99_scanf(i8* getelementptr inbounds ([3 x i8], [3 x i8]* @.str, i64 0, i64 0), i32* %32)
  %34 = load i32, i32* %6, align 4
  %35 = sext i32 %34 to i64
  %36 = getelementptr inbounds [30 x i32], [30 x i32]* %3, i64 0, i64 %35
  %37 = load i32, i32* %36, align 4
  %38 = icmp eq i32 %37, 1
  br i1 %38, label %45, label %39

39:                                               ; preds = %29
  %40 = load i32, i32* %6, align 4
  %41 = sext i32 %40 to i64
  %42 = getelementptr inbounds [30 x i32], [30 x i32]* %3, i64 0, i64 %41
  %43 = load i32, i32* %42, align 4
  %44 = icmp eq i32 %43, 2
  br i1 %44, label %45, label %56

45:                                               ; preds = %39, %29
  %46 = load i32, i32* %6, align 4
  %47 = sext i32 %46 to i64
  %48 = getelementptr inbounds [30 x [100 x i32]], [30 x [100 x i32]]* %4, i64 0, i64 %47
  %49 = load i32, i32* %6, align 4
  %50 = sext i32 %49 to i64
  %51 = getelementptr inbounds [30 x i32], [30 x i32]* %3, i64 0, i64 %50
  %52 = load i32, i32* %51, align 4
  %53 = sext i32 %52 to i64
  %54 = getelementptr inbounds [100 x i32], [100 x i32]* %48, i64 0, i64 %53
  store i32 1, i32* %54, align 4
  %55 = call i32 (i8*, ...) @printf(i8* getelementptr inbounds ([4 x i8], [4 x i8]* @.str.1, i64 0, i64 0), i32 1)
  br label %103

56:                                               ; preds = %39
  store i32 3, i32* %7, align 4
  br label %57

57:                                               ; preds = %88, %56
  %58 = load i32, i32* %7, align 4
  %59 = load i32, i32* %6, align 4
  %60 = sext i32 %59 to i64
  %61 = getelementptr inbounds [30 x i32], [30 x i32]* %3, i64 0, i64 %60
  %62 = load i32, i32* %61, align 4
  %63 = icmp sle i32 %58, %62
  br i1 %63, label %64, label %91

64:                                               ; preds = %57
  %65 = load i32, i32* %6, align 4
  %66 = sext i32 %65 to i64
  %67 = getelementptr inbounds [30 x [100 x i32]], [30 x [100 x i32]]* %4, i64 0, i64 %66
  %68 = load i32, i32* %7, align 4
  %69 = sub nsw i32 %68, 1
  %70 = sext i32 %69 to i64
  %71 = getelementptr inbounds [100 x i32], [100 x i32]* %67, i64 0, i64 %70
  %72 = load i32, i32* %71, align 4
  %73 = load i32, i32* %6, align 4
  %74 = sext i32 %73 to i64
  %75 = getelementptr inbounds [30 x [100 x i32]], [30 x [100 x i32]]* %4, i64 0, i64 %74
  %76 = load i32, i32* %7, align 4
  %77 = sub nsw i32 %76, 2
  %78 = sext i32 %77 to i64
  %79 = getelementptr inbounds [100 x i32], [100 x i32]* %75, i64 0, i64 %78
  %80 = load i32, i32* %79, align 4
  %81 = add nsw i32 %72, %80
  %82 = load i32, i32* %6, align 4
  %83 = sext i32 %82 to i64
  %84 = getelementptr inbounds [30 x [100 x i32]], [30 x [100 x i32]]* %4, i64 0, i64 %83
  %85 = load i32, i32* %7, align 4
  %86 = sext i32 %85 to i64
  %87 = getelementptr inbounds [100 x i32], [100 x i32]* %84, i64 0, i64 %86
  store i32 %81, i32* %87, align 4
  br label %88

88:                                               ; preds = %64
  %89 = load i32, i32* %7, align 4
  %90 = add nsw i32 %89, 1
  store i32 %90, i32* %7, align 4
  br label %57

91:                                               ; preds = %57
  %92 = load i32, i32* %6, align 4
  %93 = sext i32 %92 to i64
  %94 = getelementptr inbounds [30 x [100 x i32]], [30 x [100 x i32]]* %4, i64 0, i64 %93
  %95 = load i32, i32* %6, align 4
  %96 = sext i32 %95 to i64
  %97 = getelementptr inbounds [30 x i32], [30 x i32]* %3, i64 0, i64 %96
  %98 = load i32, i32* %97, align 4
  %99 = sext i32 %98 to i64
  %100 = getelementptr inbounds [100 x i32], [100 x i32]* %94, i64 0, i64 %99
  %101 = load i32, i32* %100, align 4
  %102 = call i32 (i8*, ...) @printf(i8* getelementptr inbounds ([4 x i8], [4 x i8]* @.str.1, i64 0, i64 0), i32 %101)
  br label %103

103:                                              ; preds = %91, %45
  br label %104

104:                                              ; preds = %103
  %105 = load i32, i32* %6, align 4
  %106 = add nsw i32 %105, 1
  store i32 %106, i32* %6, align 4
  br label %25

107:                                              ; preds = %25
  %108 = call i32 (i8*, ...) @__isoc99_scanf(i8* getelementptr inbounds ([3 x i8], [3 x i8]* @.str, i64 0, i64 0), i32* %2)
  ret i32 0
}

declare dso_local i32 @__isoc99_scanf(i8*, ...) #1

declare dso_local i32 @printf(i8*, ...) #1


!llvm.module.flags = !{!0}
!llvm.ident = !{!1}

!0 = !{i32 1, !"wchar_size", i32 4}
!1 = !{!"clang version 10.0.0-4ubuntu1 "}
